target datalayout = "e-m:e-p270:32:32-p271:32:32-p272:64:64-i64:64-i128:128-f80:128-n8:16:32:64-S128"
target triple = "x86_64-pc-linux-gnu"

; Function Attrs: nounwind uwtable
define dso_local ptr @dictGetFairRandomKey(ptr noundef %0) #0 {
  %2 = alloca ptr, align 8
  %3 = alloca ptr, align 8
  %4 = alloca [15 x ptr], align 16
  %5 = alloca i32, align 4
  %6 = alloca i32, align 4
  %7 = alloca i32, align 4
  store ptr %0, ptr %3, align 8, !tbaa !18
  call void @llvm.lifetime.start.p0(i64 120, ptr %4) #14
  call void @llvm.lifetime.start.p0(i64 4, ptr %5) #14
  %8 = load ptr, ptr %3, align 8, !tbaa !18
  %9 = getelementptr inbounds [15 x ptr], ptr %4, i64 0, i64 0
  %10 = call i32 @dictGetSomeKeys(ptr noundef %8, ptr noundef %9, i32 noundef 15)
  store i32 %10, ptr %5, align 4, !tbaa !29
  %11 = load i32, ptr %5, align 4, !tbaa !29
  %12 = icmp eq i32 %11, 0
  br i1 %12, label %13, label %16

13:                                               ; preds = %1
  %14 = load ptr, ptr %3, align 8, !tbaa !18
  %15 = call ptr @dictGetRandomKey(ptr noundef %14)
  store ptr %15, ptr %2, align 8
  store i32 1, ptr %6, align 4
  br label %24

16:                                               ; preds = %1
  call void @llvm.lifetime.start.p0(i64 4, ptr %7) #14
  %17 = call i32 @rand() #14
  %18 = load i32, ptr %5, align 4, !tbaa !29
  %19 = urem i32 %17, %18
  store i32 %19, ptr %7, align 4, !tbaa !29
  %20 = load i32, ptr %7, align 4, !tbaa !29
  %21 = zext i32 %20 to i64
  %22 = getelementptr inbounds nuw [15 x ptr], ptr %4, i64 0, i64 %21
  %23 = load ptr, ptr %22, align 8, !tbaa !36
  store ptr %23, ptr %2, align 8
  store i32 1, ptr %6, align 4
  call void @llvm.lifetime.end.p0(i64 4, ptr %7) #14
  br label %24

24:                                               ; preds = %16, %13
  call void @llvm.lifetime.end.p0(i64 4, ptr %5) #14
  call void @llvm.lifetime.end.p0(i64 120, ptr %4) #14
  %25 = load ptr, ptr %2, align 8
  ret ptr %25
}