; Function Attrs: nounwind uwtable
define dso_local ptr @dictGetFairRandomKey(ptr noundef %0) local_unnamed_addr #3 {
  %2 = alloca [15 x ptr], align 16
  call void @llvm.lifetime.start.p0(i64 120, ptr nonnull %2) #25
  %3 = call i32 @dictGetSomeKeys(ptr noundef %0, ptr noundef nonnull %2, i32 noundef 15)
  %4 = icmp eq i32 %3, 0
  br i1 %4, label %5, label %7

5:                                                ; preds = %1
  %6 = tail call ptr @dictGetRandomKey(ptr noundef %0)
  br label %13

7:                                                ; preds = %1
  %8 = tail call i32 @rand() #25
  %9 = urem i32 %8, %3
  %10 = zext i32 %9 to i64
  %11 = getelementptr inbounds nuw [15 x ptr], ptr %2, i64 0, i64 %10
  %12 = load ptr, ptr %11, align 8, !tbaa !31
  br label %13

13:                                               ; preds = %7, %5
  %.0 = phi ptr [ %6, %5 ], [ %12, %7 ]
  call void @llvm.lifetime.end.p0(i64 120, ptr nonnull %2) #25
  ret ptr %.0
}